target datalayout = "e-m:e-p270:32:32-p271:32:32-p272:64:64-i64:64-i128:128-f80:128-n8:16:32:64-S128"
target triple = "x86_64-pc-linux-gnu"

%struct.AVFormatContext = type { ptr, ptr, ptr, ptr, ptr, i32, i32, ptr, i32, ptr, i32, ptr, ptr, i64, i64, i64, i32, i32, i32, i64, i64, ptr, i32, i32, ptr, i32, i32, i32, i32, ptr, i64, i32, i32, %struct.AVIOInterruptCB, i32, i32, i32, i32, i64, i32, i32, i32, i32, i32, i32, i32, i32, i32, i32, i32, i32, i64, i32, i32, i32, i32, i32, ptr, ptr, ptr, ptr, i32, ptr, ptr, ptr, ptr, i32, ptr, ptr, i64, ptr, ptr, ptr, i64 }
%struct.AVIOInterruptCB = type { ptr, ptr }
%struct.AVStream = type { ptr, i32, i32, ptr, ptr, %struct.AVRational, i64, i64, i64, i32, i32, %struct.AVRational, ptr, %struct.AVRational, %struct.AVPacket, i32, %struct.AVRational, i32 }
%struct.AVPacket = type { ptr, i64, i64, ptr, i32, i32, i32, ptr, i32, i64, i64, ptr, ptr, %struct.AVRational }
%struct.AVRational = type { i32, i32 }
%struct.AVCodecParameters = type { i32, i32, i32, ptr, i32, ptr, i32, i32, i64, i32, i32, i32, i32, i32, i32, %struct.AVRational, %struct.AVRational, i32, i32, i32, i32, i32, i32, i32, %struct.AVChannelLayout, i32, i32, i32, i32, i32, i32 }
%struct.AVChannelLayout = type { i32, i32, %union.anon, ptr }
%union.anon = type { i64 }
%struct.AVPixFmtDescriptor = type { ptr, i8, i8, i8, i64, [4 x %struct.AVComponentDescriptor], ptr }
%struct.AVComponentDescriptor = type { i32, i32, i32, i32, i32 }
%struct.AVFrame = type { [8 x ptr], [8 x i32], ptr, i32, i32, i32, i32, i32, %struct.AVRational, i64, i64, %struct.AVRational, i32, ptr, i32, i32, [8 x ptr], ptr, i32, ptr, i32, i32, i32, i32, i32, i32, i32, i64, ptr, i32, ptr, ptr, i64, i64, i64, i64, ptr, %struct.AVChannelLayout, i64 }

@.str.35 = private unnamed_addr constant [7 x i8] c"FRAME\0A\00", align 1

; Function Attrs: nounwind uwtable
define internal i32 @yuv4_write_packet(ptr noundef %0, ptr noundef %1) #0 {
  %3 = alloca i32, align 4
  %4 = alloca ptr, align 8
  %5 = alloca ptr, align 8
  %6 = alloca ptr, align 8
  %7 = alloca ptr, align 8
  %8 = alloca ptr, align 8
  %9 = alloca i32, align 4
  %10 = alloca i32, align 4
  %11 = alloca ptr, align 8
  %12 = alloca i32, align 4
  %13 = alloca i32, align 4
  %14 = alloca i32, align 4
  %15 = alloca i32, align 4
  %16 = alloca ptr, align 8
  %17 = alloca i32, align 4
  store ptr %0, ptr %4, align 8, !tbaa !4
  store ptr %1, ptr %5, align 8, !tbaa !52
  call void @llvm.lifetime.start.p0(i64 8, ptr %6) #4
  %18 = load ptr, ptr %4, align 8, !tbaa !4
  %19 = getelementptr inbounds nuw %struct.AVFormatContext, ptr %18, i32 0, i32 7
  %20 = load ptr, ptr %19, align 8, !tbaa !28
  %21 = load ptr, ptr %5, align 8, !tbaa !52
  %22 = getelementptr inbounds nuw %struct.AVPacket, ptr %21, i32 0, i32 5
  %23 = load i32, ptr %22, align 4, !tbaa !54
  %24 = sext i32 %23 to i64
  %25 = getelementptr inbounds ptr, ptr %20, i64 %24
  %26 = load ptr, ptr %25, align 8, !tbaa !29
  store ptr %26, ptr %6, align 8, !tbaa !29
  call void @llvm.lifetime.start.p0(i64 8, ptr %7) #4
  %27 = load ptr, ptr %4, align 8, !tbaa !4
  %28 = getelementptr inbounds nuw %struct.AVFormatContext, ptr %27, i32 0, i32 4
  %29 = load ptr, ptr %28, align 8, !tbaa !9
  store ptr %29, ptr %7, align 8, !tbaa !26
  call void @llvm.lifetime.start.p0(i64 8, ptr %8) #4
  %30 = load ptr, ptr %5, align 8, !tbaa !52
  %31 = getelementptr inbounds nuw %struct.AVPacket, ptr %30, i32 0, i32 3
  %32 = load ptr, ptr %31, align 8, !tbaa !55
  store ptr %32, ptr %8, align 8, !tbaa !56
  call void @llvm.lifetime.start.p0(i64 4, ptr %9) #4
  call void @llvm.lifetime.start.p0(i64 4, ptr %10) #4
  call void @llvm.lifetime.start.p0(i64 8, ptr %11) #4
  %33 = load ptr, ptr %4, align 8, !tbaa !4
  %34 = getelementptr inbounds nuw %struct.AVFormatContext, ptr %33, i32 0, i32 4
  %35 = load ptr, ptr %34, align 8, !tbaa !9
  %36 = call i32 (ptr, ptr, ...) @avio_printf(ptr noundef %35, ptr noundef @.str.35)
  %37 = load ptr, ptr %6, align 8, !tbaa !29
  %38 = getelementptr inbounds nuw %struct.AVStream, ptr %37, i32 0, i32 3
  %39 = load ptr, ptr %38, align 8, !tbaa !31
  %40 = getelementptr inbounds nuw %struct.AVCodecParameters, ptr %39, i32 0, i32 1
  %41 = load i32, ptr %40, align 4, !tbaa !58
  %42 = icmp eq i32 %41, 13
  br i1 %42, label %43, label %51

43:                                               ; preds = %2
  %44 = load ptr, ptr %7, align 8, !tbaa !26
  %45 = load ptr, ptr %5, align 8, !tbaa !52
  %46 = getelementptr inbounds nuw %struct.AVPacket, ptr %45, i32 0, i32 3
  %47 = load ptr, ptr %46, align 8, !tbaa !55
  %48 = load ptr, ptr %5, align 8, !tbaa !52
  %49 = getelementptr inbounds nuw %struct.AVPacket, ptr %48, i32 0, i32 4
  %50 = load i32, ptr %49, align 8, !tbaa !59
  call void @avio_write(ptr noundef %44, ptr noundef %47, i32 noundef %50)
  store i32 0, ptr %3, align 4
  store i32 1, ptr %12, align 4
  br label %191

51:                                               ; preds = %2
  %52 = load ptr, ptr %6, align 8, !tbaa !29
  %53 = getelementptr inbounds nuw %struct.AVStream, ptr %52, i32 0, i32 3
  %54 = load ptr, ptr %53, align 8, !tbaa !31
  %55 = getelementptr inbounds nuw %struct.AVCodecParameters, ptr %54, i32 0, i32 13
  %56 = load i32, ptr %55, align 8, !tbaa !38
  store i32 %56, ptr %9, align 4, !tbaa !41
  %57 = load ptr, ptr %6, align 8, !tbaa !29
  %58 = getelementptr inbounds nuw %struct.AVStream, ptr %57, i32 0, i32 3
  %59 = load ptr, ptr %58, align 8, !tbaa !31
  %60 = getelementptr inbounds nuw %struct.AVCodecParameters, ptr %59, i32 0, i32 14
  %61 = load i32, ptr %60, align 4, !tbaa !42
  store i32 %61, ptr %10, align 4, !tbaa !41
  %62 = load ptr, ptr %6, align 8, !tbaa !29
  %63 = getelementptr inbounds nuw %struct.AVStream, ptr %62, i32 0, i32 3
  %64 = load ptr, ptr %63, align 8, !tbaa !31
  %65 = getelementptr inbounds nuw %struct.AVCodecParameters, ptr %64, i32 0, i32 7
  %66 = load i32, ptr %65, align 4, !tbaa !50
  %67 = call ptr @av_pix_fmt_desc_get(i32 noundef %66)
  store ptr %67, ptr %11, align 8, !tbaa !60
  call void @llvm.lifetime.start.p0(i64 4, ptr %13) #4
  store i32 0, ptr %13, align 4, !tbaa !41
  br label %68

68:                                               ; preds = %187, %51
  %69 = load i32, ptr %13, align 4, !tbaa !41
  %70 = load ptr, ptr %11, align 8, !tbaa !60
  %71 = getelementptr inbounds nuw %struct.AVPixFmtDescriptor, ptr %70, i32 0, i32 1
  %72 = load i8, ptr %71, align 8, !tbaa !62
  %73 = zext i8 %72 to i32
  %74 = icmp slt i32 %69, %73
  br i1 %74, label %76, label %75

75:                                               ; preds = %68
  store i32 2, ptr %12, align 4
  call void @llvm.lifetime.end.p0(i64 4, ptr %13) #4
  br label %190

76:                                               ; preds = %68
  call void @llvm.lifetime.start.p0(i64 4, ptr %14) #4
  %77 = load i32, ptr %10, align 4, !tbaa !41
  store i32 %77, ptr %14, align 4, !tbaa !41
  call void @llvm.lifetime.start.p0(i64 4, ptr %15) #4
  %78 = load i32, ptr %9, align 4, !tbaa !41
  store i32 %78, ptr %15, align 4, !tbaa !41
  call void @llvm.lifetime.start.p0(i64 8, ptr %16) #4
  %79 = load ptr, ptr %8, align 8, !tbaa !56
  %80 = getelementptr inbounds nuw %struct.AVFrame, ptr %79, i32 0, i32 0
  %81 = load i32, ptr %13, align 4, !tbaa !41
  %82 = sext i32 %81 to i64
  %83 = getelementptr inbounds [8 x ptr], ptr %80, i64 0, i64 %82
  %84 = load ptr, ptr %83, align 8, !tbaa !27
  store ptr %84, ptr %16, align 8, !tbaa !27
  %85 = load ptr, ptr %11, align 8, !tbaa !60
  %86 = getelementptr inbounds nuw %struct.AVPixFmtDescriptor, ptr %85, i32 0, i32 1
  %87 = load i8, ptr %86, align 8, !tbaa !62
  %88 = zext i8 %87 to i32
  %89 = icmp sge i32 %88, 3
  br i1 %89, label %90, label %155

90:                                               ; preds = %76
  %91 = load i32, ptr %13, align 4, !tbaa !41
  %92 = icmp eq i32 %91, 1
  br i1 %92, label %96, label %93

93:                                               ; preds = %90
  %94 = load i32, ptr %13, align 4, !tbaa !41
  %95 = icmp eq i32 %94, 2
  br i1 %95, label %96, label %155

96:                                               ; preds = %93, %90
  %97 = load ptr, ptr %11, align 8, !tbaa !60
  %98 = getelementptr inbounds nuw %struct.AVPixFmtDescriptor, ptr %97, i32 0, i32 2
  %99 = load i8, ptr %98, align 1, !tbaa !64
  %100 = call i1 @llvm.is.constant.i8(i8 %99)
  br i1 %100, label %110, label %101

101:                                              ; preds = %96
  %102 = load i32, ptr %15, align 4, !tbaa !41
  %103 = sub nsw i32 0, %102
  %104 = load ptr, ptr %11, align 8, !tbaa !60
  %105 = getelementptr inbounds nuw %struct.AVPixFmtDescriptor, ptr %104, i32 0, i32 2
  %106 = load i8, ptr %105, align 1, !tbaa !64
  %107 = zext i8 %106 to i32
  %108 = ashr i32 %103, %107
  %109 = sub nsw i32 0, %108
  br label %124

110:                                              ; preds = %96
  %111 = load i32, ptr %15, align 4, !tbaa !41
  %112 = load ptr, ptr %11, align 8, !tbaa !60
  %113 = getelementptr inbounds nuw %struct.AVPixFmtDescriptor, ptr %112, i32 0, i32 2
  %114 = load i8, ptr %113, align 1, !tbaa !64
  %115 = zext i8 %114 to i32
  %116 = shl i32 1, %115
  %117 = add nsw i32 %111, %116
  %118 = sub nsw i32 %117, 1
  %119 = load ptr, ptr %11, align 8, !tbaa !60
  %120 = getelementptr inbounds nuw %struct.AVPixFmtDescriptor, ptr %119, i32 0, i32 2
  %121 = load i8, ptr %120, align 1, !tbaa !64
  %122 = zext i8 %121 to i32
  %123 = ashr i32 %118, %122
  br label %124

124:                                              ; preds = %110, %101
  %125 = phi i32 [ %109, %101 ], [ %123, %110 ]
  store i32 %125, ptr %15, align 4, !tbaa !41
  %126 = load ptr, ptr %11, align 8, !tbaa !60
  %127 = getelementptr inbounds nuw %struct.AVPixFmtDescriptor, ptr %126, i32 0, i32 3
  %128 = load i8, ptr %127, align 2, !tbaa !65
  %129 = call i1 @llvm.is.constant.i8(i8 %128)
  br i1 %129, label %139, label %130

130:                                              ; preds = %124
  %131 = load i32, ptr %14, align 4, !tbaa !41
  %132 = sub nsw i32 0, %131
  %133 = load ptr, ptr %11, align 8, !tbaa !60
  %134 = getelementptr inbounds nuw %struct.AVPixFmtDescriptor, ptr %133, i32 0, i32 3
  %135 = load i8, ptr %134, align 2, !tbaa !65
  %136 = zext i8 %135 to i32
  %137 = ashr i32 %132, %136
  %138 = sub nsw i32 0, %137
  br label %153

139:                                              ; preds = %124
  %140 = load i32, ptr %14, align 4, !tbaa !41
  %141 = load ptr, ptr %11, align 8, !tbaa !60
  %142 = getelementptr inbounds nuw %struct.AVPixFmtDescriptor, ptr %141, i32 0, i32 3
  %143 = load i8, ptr %142, align 2, !tbaa !65
  %144 = zext i8 %143 to i32
  %145 = shl i32 1, %144
  %146 = add nsw i32 %140, %145
  %147 = sub nsw i32 %146, 1
  %148 = load ptr, ptr %11, align 8, !tbaa !60
  %149 = getelementptr inbounds nuw %struct.AVPixFmtDescriptor, ptr %148, i32 0, i32 3
  %150 = load i8, ptr %149, align 2, !tbaa !65
  %151 = zext i8 %150 to i32
  %152 = ashr i32 %147, %151
  br label %153

153:                                              ; preds = %139, %130
  %154 = phi i32 [ %138, %130 ], [ %152, %139 ]
  store i32 %154, ptr %14, align 4, !tbaa !41
  br label %155

155:                                              ; preds = %153, %93, %76
  %156 = load ptr, ptr %11, align 8, !tbaa !60
  %157 = getelementptr inbounds nuw %struct.AVPixFmtDescriptor, ptr %156, i32 0, i32 5
  %158 = load i32, ptr %13, align 4, !tbaa !41
  %159 = sext i32 %158 to i64
  %160 = getelementptr inbounds [4 x %struct.AVComponentDescriptor], ptr %157, i64 0, i64 %159
  %161 = getelementptr inbounds nuw %struct.AVComponentDescriptor, ptr %160, i32 0, i32 1
  %162 = load i32, ptr %161, align 4, !tbaa !66
  %163 = load i32, ptr %15, align 4, !tbaa !41
  %164 = mul nsw i32 %163, %162
  store i32 %164, ptr %15, align 4, !tbaa !41
  call void @llvm.lifetime.start.p0(i64 4, ptr %17) #4
  store i32 0, ptr %17, align 4, !tbaa !41
  br label %165

165:                                              ; preds = %183, %155
  %166 = load i32, ptr %17, align 4, !tbaa !41
  %167 = load i32, ptr %14, align 4, !tbaa !41
  %168 = icmp slt i32 %166, %167
  br i1 %168, label %170, label %169

169:                                              ; preds = %165
  store i32 5, ptr %12, align 4
  call void @llvm.lifetime.end.p0(i64 4, ptr %17) #4
  br label %186

170:                                              ; preds = %165
  %171 = load ptr, ptr %7, align 8, !tbaa !26
  %172 = load ptr, ptr %16, align 8, !tbaa !27
  %173 = load i32, ptr %15, align 4, !tbaa !41
  call void @avio_write(ptr noundef %171, ptr noundef %172, i32 noundef %173)
  %174 = load ptr, ptr %8, align 8, !tbaa !56
  %175 = getelementptr inbounds nuw %struct.AVFrame, ptr %174, i32 0, i32 1
  %176 = load i32, ptr %13, align 4, !tbaa !41
  %177 = sext i32 %176 to i64
  %178 = getelementptr inbounds [8 x i32], ptr %175, i64 0, i64 %177
  %179 = load i32, ptr %178, align 4, !tbaa !41
  %180 = load ptr, ptr %16, align 8, !tbaa !27
  %181 = sext i32 %179 to i64
  %182 = getelementptr inbounds i8, ptr %180, i64 %181
  store ptr %182, ptr %16, align 8, !tbaa !27
  br label %183

183:                                              ; preds = %170
  %184 = load i32, ptr %17, align 4, !tbaa !41
  %185 = add nsw i32 %184, 1
  store i32 %185, ptr %17, align 4, !tbaa !41
  br label %165, !llvm.loop !68

186:                                              ; preds = %169
  call void @llvm.lifetime.end.p0(i64 8, ptr %16) #4
  call void @llvm.lifetime.end.p0(i64 4, ptr %15) #4
  call void @llvm.lifetime.end.p0(i64 4, ptr %14) #4
  br label %187

187:                                              ; preds = %186
  %188 = load i32, ptr %13, align 4, !tbaa !41
  %189 = add nsw i32 %188, 1
  store i32 %189, ptr %13, align 4, !tbaa !41
  br label %68, !llvm.loop !70

190:                                              ; preds = %75
  store i32 0, ptr %3, align 4
  store i32 1, ptr %12, align 4
  br label %191

191:                                              ; preds = %190, %43
  call void @llvm.lifetime.end.p0(i64 8, ptr %11) #4
  call void @llvm.lifetime.end.p0(i64 4, ptr %10) #4
  call void @llvm.lifetime.end.p0(i64 4, ptr %9) #4
  call void @llvm.lifetime.end.p0(i64 8, ptr %8) #4
  call void @llvm.lifetime.end.p0(i64 8, ptr %7) #4
  call void @llvm.lifetime.end.p0(i64 8, ptr %6) #4
  %192 = load i32, ptr %3, align 4
  ret i32 %192
}