; Function Attrs: nounwind uwtable
define internal noundef i32 @yuv4_write_packet(ptr noundef readonly captures(none) %0, ptr noundef readonly captures(none) %1) #0 {
  %3 = getelementptr inbounds nuw i8, ptr %0, i64 48
  %4 = load ptr, ptr %3, align 8, !tbaa !24
  %5 = getelementptr inbounds nuw i8, ptr %1, i64 36
  %6 = load i32, ptr %5, align 4, !tbaa !47
  %7 = sext i32 %6 to i64
  %8 = getelementptr inbounds ptr, ptr %4, i64 %7
  %9 = load ptr, ptr %8, align 8, !tbaa !25
  %10 = getelementptr inbounds nuw i8, ptr %0, i64 32
  %11 = load ptr, ptr %10, align 8, !tbaa !4
  %12 = getelementptr inbounds nuw i8, ptr %1, i64 24
  %13 = load ptr, ptr %12, align 8, !tbaa !48
  %14 = tail call i32 (ptr, ptr, ...) @avio_printf(ptr noundef %11, ptr noundef nonnull @.str.35) #3
  %15 = getelementptr inbounds nuw i8, ptr %9, i64 16
  %16 = load ptr, ptr %15, align 8, !tbaa !27
  %17 = getelementptr inbounds nuw i8, ptr %16, i64 4
  %18 = load i32, ptr %17, align 4, !tbaa !49
  %19 = icmp eq i32 %18, 13
  br i1 %19, label %20, label %24

20:                                               ; preds = %2
  %21 = load ptr, ptr %12, align 8, !tbaa !48
  %22 = getelementptr inbounds nuw i8, ptr %1, i64 32
  %23 = load i32, ptr %22, align 8, !tbaa !50
  tail call void @avio_write(ptr noundef %11, ptr noundef %21, i32 noundef %23) #3
  br label %.loopexit

24:                                               ; preds = %2
  %25 = getelementptr inbounds nuw i8, ptr %16, i64 72
  %26 = load i32, ptr %25, align 8, !tbaa !34
  %27 = getelementptr inbounds nuw i8, ptr %16, i64 76
  %28 = load i32, ptr %27, align 4, !tbaa !37
  %29 = getelementptr inbounds nuw i8, ptr %16, i64 44
  %30 = load i32, ptr %29, align 4, !tbaa !44
  %31 = tail call ptr @av_pix_fmt_desc_get(i32 noundef %30) #3
  %32 = getelementptr inbounds nuw i8, ptr %31, i64 8
  %33 = load i8, ptr %32, align 8, !tbaa !51
  %.not = icmp eq i8 %33, 0
  br i1 %.not, label %.loopexit, label %.lr.ph58

.lr.ph58:                                         ; preds = %24
  %34 = getelementptr inbounds nuw i8, ptr %31, i64 9
  %35 = sub nsw i32 0, %26
  %36 = getelementptr inbounds nuw i8, ptr %31, i64 10
  %37 = sub nsw i32 0, %28
  %38 = getelementptr i8, ptr %31, i64 28
  %39 = getelementptr inbounds nuw i8, ptr %13, i64 64
  br label %40

40:                                               ; preds = %.lr.ph58, %._crit_edge
  %41 = phi i8 [ %33, %.lr.ph58 ], [ %62, %._crit_edge ]
  %indvars.iv = phi i64 [ 0, %.lr.ph58 ], [ %indvars.iv.next, %._crit_edge ]
  %42 = getelementptr inbounds nuw [8 x ptr], ptr %13, i64 0, i64 %indvars.iv
  %43 = load ptr, ptr %42, align 8, !tbaa !53
  %44 = icmp ugt i8 %41, 2
  %45 = trunc nuw nsw i64 %indvars.iv to i32
  %46 = add nsw i32 %45, -1
  %or.cond = icmp ult i32 %46, 2
  %or.cond53 = and i1 %44, %or.cond
  br i1 %or.cond53, label %47, label %56

47:                                               ; preds = %40
  %48 = load i8, ptr %34, align 1, !tbaa !54
  %49 = zext nneg i8 %48 to i32
  %50 = ashr i32 %35, %49
  %51 = sub nsw i32 0, %50
  %52 = load i8, ptr %36, align 2, !tbaa !55
  %53 = zext nneg i8 %52 to i32
  %54 = ashr i32 %37, %53
  %55 = sub nsw i32 0, %54
  br label %56

56:                                               ; preds = %47, %40
  %.049 = phi i32 [ %28, %40 ], [ %55, %47 ]
  %.048 = phi i32 [ %26, %40 ], [ %51, %47 ]
  %.idx = mul nuw nsw i64 %indvars.iv, 20
  %57 = getelementptr i8, ptr %38, i64 %.idx
  %58 = load i32, ptr %57, align 4, !tbaa !56
  %59 = mul nsw i32 %58, %.048
  %60 = icmp sgt i32 %.049, 0
  br i1 %60, label %.lr.ph, label %._crit_edge

.lr.ph:                                           ; preds = %56
  %61 = getelementptr inbounds nuw [8 x i32], ptr %39, i64 0, i64 %indvars.iv
  br label %65

._crit_edge.loopexit:                             ; preds = %65
  %.pre = load i8, ptr %32, align 8, !tbaa !51
  br label %._crit_edge

._crit_edge:                                      ; preds = %._crit_edge.loopexit, %56
  %62 = phi i8 [ %.pre, %._crit_edge.loopexit ], [ %41, %56 ]
  %indvars.iv.next = add nuw nsw i64 %indvars.iv, 1
  %63 = zext i8 %62 to i64
  %64 = icmp samesign ult i64 %indvars.iv.next, %63
  br i1 %64, label %40, label %.loopexit, !llvm.loop !58

65:                                               ; preds = %.lr.ph, %65
  %.055 = phi i32 [ 0, %.lr.ph ], [ %69, %65 ]
  %.04754 = phi ptr [ %43, %.lr.ph ], [ %68, %65 ]
  tail call void @avio_write(ptr noundef %11, ptr noundef %.04754, i32 noundef %59) #3
  %66 = load i32, ptr %61, align 4, !tbaa !46
  %67 = sext i32 %66 to i64
  %68 = getelementptr inbounds i8, ptr %.04754, i64 %67
  %69 = add nuw nsw i32 %.055, 1
  %exitcond.not = icmp eq i32 %69, %.049
  br i1 %exitcond.not, label %._crit_edge.loopexit, label %65, !llvm.loop !60

.loopexit:                                        ; preds = %._crit_edge, %24, %20
  ret i32 0
}